target datalayout = "e-m:e-p270:32:32-p271:32:32-p272:64:64-i64:64-i128:128-f80:128-n8:16:32:64-S128"
target triple = "x86_64-pc-linux-gnu"

%struct.GCRef = type { i64 }
%struct.IRType1 = type { i8 }
%union.IRIns = type { %struct.GCRef }
%struct.ASMState = type { [32 x i32], ptr, ptr, ptr, ptr, %struct.x86ModRM, i32, i32, i32, i32, i32, i32, i32, i32, i32, i32, i32, i32, i32, i32, i32, i32, i64, i64, i32, i32, i32, i32, i32, ptr, ptr, ptr, ptr, ptr, ptr, ptr, ptr, ptr, [32 x i16], [250 x i16] }
%struct.x86ModRM = type { i32, i8, i8, i8 }
%struct.anon.0 = type { i32, %struct.IRType1, i8, i8, i8 }
%struct.anon = type { i16, i16, i16, i16 }

; Function Attrs: nounwind uwtable
define internal i32 @noconflict(ptr noundef %0, i32 noundef %1, i32 noundef %2, i32 noundef %3) #0 {
  %5 = alloca i32, align 4
  %6 = alloca ptr, align 8
  %7 = alloca i32, align 4
  %8 = alloca i32, align 4
  %9 = alloca i32, align 4
  %10 = alloca ptr, align 8
  %11 = alloca i32, align 4
  %12 = alloca i32, align 4
  store ptr %0, ptr %6, align 8, !tbaa !33
  store i32 %1, ptr %7, align 4, !tbaa !11
  store i32 %2, ptr %8, align 4, !tbaa !11
  store i32 %3, ptr %9, align 4, !tbaa !11
  call void @llvm.lifetime.start.p0(i64 8, ptr %10) #11
  %13 = load ptr, ptr %6, align 8, !tbaa !33
  %14 = getelementptr inbounds nuw %struct.ASMState, ptr %13, i32 0, i32 3
  %15 = load ptr, ptr %14, align 8, !tbaa !70
  store ptr %15, ptr %10, align 8, !tbaa !37
  call void @llvm.lifetime.start.p0(i64 4, ptr %11) #11
  %16 = load ptr, ptr %6, align 8, !tbaa !33
  %17 = getelementptr inbounds nuw %struct.ASMState, ptr %16, i32 0, i32 14
  %18 = load i32, ptr %17, align 8, !tbaa !72
  store i32 %18, ptr %11, align 4, !tbaa !11
  %19 = load i32, ptr %11, align 4, !tbaa !11
  %20 = load i32, ptr %7, align 4, !tbaa !11
  %21 = add i32 %20, 31
  %22 = icmp ugt i32 %19, %21
  br i1 %22, label %23, label %24

23:                                               ; preds = %4
  store i32 0, ptr %5, align 4
  store i32 1, ptr %12, align 4
  br label %93

24:                                               ; preds = %4
  br label %25

25:                                               ; preds = %91, %24
  %26 = load i32, ptr %11, align 4, !tbaa !11
  %27 = add i32 %26, -1
  store i32 %27, ptr %11, align 4, !tbaa !11
  %28 = load i32, ptr %7, align 4, !tbaa !11
  %29 = icmp ugt i32 %27, %28
  br i1 %29, label %30, label %92

30:                                               ; preds = %25
  %31 = load ptr, ptr %10, align 8, !tbaa !37
  %32 = load i32, ptr %11, align 4, !tbaa !11
  %33 = zext i32 %32 to i64
  %34 = getelementptr inbounds nuw %union.IRIns, ptr %31, i64 %33
  %35 = getelementptr inbounds nuw %struct.anon.0, ptr %34, i32 0, i32 2
  %36 = load i8, ptr %35, align 1, !tbaa !25
  %37 = zext i8 %36 to i32
  %38 = load i32, ptr %8, align 4, !tbaa !11
  %39 = icmp eq i32 %37, %38
  br i1 %39, label %40, label %41

40:                                               ; preds = %30
  store i32 0, ptr %5, align 4
  store i32 1, ptr %12, align 4
  br label %93

41:                                               ; preds = %30
  %42 = load i32, ptr %9, align 4, !tbaa !11
  %43 = and i32 %42, 1
  %44 = icmp ne i32 %43, 0
  br i1 %44, label %45, label %64

45:                                               ; preds = %41
  %46 = load ptr, ptr %10, align 8, !tbaa !37
  %47 = load i32, ptr %11, align 4, !tbaa !11
  %48 = zext i32 %47 to i64
  %49 = getelementptr inbounds nuw %union.IRIns, ptr %46, i64 %48
  %50 = getelementptr inbounds nuw %struct.anon.0, ptr %49, i32 0, i32 2
  %51 = load i8, ptr %50, align 1, !tbaa !25
  %52 = zext i8 %51 to i32
  %53 = icmp eq i32 %52, 59
  br i1 %53, label %63, label %54

54:                                               ; preds = %45
  %55 = load ptr, ptr %10, align 8, !tbaa !37
  %56 = load i32, ptr %11, align 4, !tbaa !11
  %57 = zext i32 %56 to i64
  %58 = getelementptr inbounds nuw %union.IRIns, ptr %55, i64 %57
  %59 = getelementptr inbounds nuw %struct.anon.0, ptr %58, i32 0, i32 2
  %60 = load i8, ptr %59, align 1, !tbaa !25
  %61 = zext i8 %60 to i32
  %62 = icmp eq i32 %61, 98
  br i1 %62, label %63, label %64

63:                                               ; preds = %54, %45
  store i32 0, ptr %5, align 4
  store i32 1, ptr %12, align 4
  br label %93

64:                                               ; preds = %54, %41
  %65 = load i32, ptr %9, align 4, !tbaa !11
  %66 = and i32 %65, 2
  %67 = icmp ne i32 %66, 0
  br i1 %67, label %68, label %89

68:                                               ; preds = %64
  %69 = load ptr, ptr %10, align 8, !tbaa !37
  %70 = load i32, ptr %11, align 4, !tbaa !11
  %71 = zext i32 %70 to i64
  %72 = getelementptr inbounds nuw %union.IRIns, ptr %69, i64 %71
  %73 = getelementptr inbounds nuw %struct.anon, ptr %72, i32 0, i32 0
  %74 = load i16, ptr %73, align 8, !tbaa !25
  %75 = zext i16 %74 to i32
  %76 = load i32, ptr %7, align 4, !tbaa !11
  %77 = icmp eq i32 %75, %76
  br i1 %77, label %88, label %78

78:                                               ; preds = %68
  %79 = load ptr, ptr %10, align 8, !tbaa !37
  %80 = load i32, ptr %11, align 4, !tbaa !11
  %81 = zext i32 %80 to i64
  %82 = getelementptr inbounds nuw %union.IRIns, ptr %79, i64 %81
  %83 = getelementptr inbounds nuw %struct.anon, ptr %82, i32 0, i32 1
  %84 = load i16, ptr %83, align 2, !tbaa !25
  %85 = zext i16 %84 to i32
  %86 = load i32, ptr %7, align 4, !tbaa !11
  %87 = icmp eq i32 %85, %86
  br i1 %87, label %88, label %89

88:                                               ; preds = %78, %68
  store i32 0, ptr %5, align 4
  store i32 1, ptr %12, align 4
  br label %93

89:                                               ; preds = %78, %64
  br label %90

90:                                               ; preds = %89
  br label %91

91:                                               ; preds = %90
  br label %25, !llvm.loop !205

92:                                               ; preds = %25
  store i32 1, ptr %5, align 4
  store i32 1, ptr %12, align 4
  br label %93

93:                                               ; preds = %92, %88, %63, %40, %23
  call void @llvm.lifetime.end.p0(i64 4, ptr %11) #11
  call void @llvm.lifetime.end.p0(i64 8, ptr %10) #11
  %94 = load i32, ptr %5, align 4
  ret i32 %94
}