; Function Attrs: nofree norecurse nosync nounwind memory(argmem: read) uwtable
define internal fastcc range(i32 0, 2) i32 @noconflict(ptr readonly captures(none) %.144.val, i32 %.200.val, i32 noundef range(i32 0, 65536) %0, i32 noundef range(i32 8, 264) %1, i32 noundef range(i32 0, 4) %2) unnamed_addr #3 {
  %4 = add nuw nsw i32 %0, 31
  %5 = icmp ugt i32 %.200.val, %4
  br i1 %5, label %.loopexit, label %.preheader

.preheader:                                       ; preds = %3
  %6 = add nsw i32 %.200.val, -1
  %7 = icmp ugt i32 %6, %0
  br i1 %7, label %.lr.ph, label %.loopexit

.lr.ph:                                           ; preds = %.preheader
  %8 = and i32 %2, 1
  %.not = icmp eq i32 %8, 0
  %.not26 = icmp samesign ult i32 %2, 2
  br i1 %.not26, label %.lr.ph.split.us, label %.lr.ph.split

.lr.ph.split.us:                                  ; preds = %.lr.ph
  %invariant.gep = getelementptr inbounds nuw i8, ptr %.144.val, i64 5
  br i1 %.not, label %.lr.ph.split.us.split.us, label %.lr.ph.split.us.split

.lr.ph.split.us.split.us:                         ; preds = %.lr.ph.split.us, %14
  %9 = phi i32 [ %15, %14 ], [ %6, %.lr.ph.split.us ]
  %10 = zext i32 %9 to i64
  %gep.us = getelementptr inbounds nuw %union.IRIns, ptr %invariant.gep, i64 %10
  %11 = load i8, ptr %gep.us, align 1, !tbaa !20
  %12 = zext i8 %11 to i32
  %13 = icmp eq i32 %1, %12
  br i1 %13, label %.loopexit, label %14

14:                                               ; preds = %.lr.ph.split.us.split.us
  %15 = add i32 %9, -1
  %16 = icmp ugt i32 %15, %0
  br i1 %16, label %.lr.ph.split.us.split.us, label %.loopexit, !llvm.loop !178

.lr.ph.split.us.split:                            ; preds = %.lr.ph.split.us, %23
  %17 = phi i32 [ %24, %23 ], [ %6, %.lr.ph.split.us ]
  %18 = zext i32 %17 to i64
  %gep = getelementptr inbounds nuw %union.IRIns, ptr %invariant.gep, i64 %18
  %19 = load i8, ptr %gep, align 1, !tbaa !20
  %20 = zext i8 %19 to i32
  %21 = icmp eq i32 %1, %20
  br i1 %21, label %.loopexit, label %22

22:                                               ; preds = %.lr.ph.split.us.split
  switch i8 %19, label %23 [
    i8 59, label %.loopexit
    i8 98, label %.loopexit
  ]

23:                                               ; preds = %22
  %24 = add i32 %17, -1
  %25 = icmp ugt i32 %24, %0
  br i1 %25, label %.lr.ph.split.us.split, label %.loopexit, !llvm.loop !178

.lr.ph.split:                                     ; preds = %.lr.ph
  br i1 %.not, label %.lr.ph.split.split.us, label %.lr.ph.split.split

.lr.ph.split.split.us:                            ; preds = %.lr.ph.split, %42
  %26 = phi i32 [ %43, %42 ], [ %6, %.lr.ph.split ]
  %27 = zext i32 %26 to i64
  %28 = getelementptr inbounds nuw %union.IRIns, ptr %.144.val, i64 %27
  %29 = getelementptr inbounds nuw i8, ptr %28, i64 5
  %30 = load i8, ptr %29, align 1, !tbaa !20
  %31 = zext i8 %30 to i32
  %32 = icmp eq i32 %1, %31
  br i1 %32, label %.loopexit, label %33

33:                                               ; preds = %.lr.ph.split.split.us
  %34 = load i16, ptr %28, align 8, !tbaa !20
  %35 = zext i16 %34 to i32
  %36 = icmp eq i32 %0, %35
  br i1 %36, label %.loopexit, label %37

37:                                               ; preds = %33
  %38 = getelementptr inbounds nuw i8, ptr %28, i64 2
  %39 = load i16, ptr %38, align 2, !tbaa !20
  %40 = zext i16 %39 to i32
  %41 = icmp eq i32 %0, %40
  br i1 %41, label %.loopexit, label %42

42:                                               ; preds = %37
  %43 = add i32 %26, -1
  %44 = icmp ugt i32 %43, %0
  br i1 %44, label %.lr.ph.split.split.us, label %.loopexit, !llvm.loop !178

.lr.ph.split.split:                               ; preds = %.lr.ph.split, %62
  %45 = phi i32 [ %63, %62 ], [ %6, %.lr.ph.split ]
  %46 = zext i32 %45 to i64
  %47 = getelementptr inbounds nuw %union.IRIns, ptr %.144.val, i64 %46
  %48 = getelementptr inbounds nuw i8, ptr %47, i64 5
  %49 = load i8, ptr %48, align 1, !tbaa !20
  %50 = zext i8 %49 to i32
  %51 = icmp eq i32 %1, %50
  br i1 %51, label %.loopexit, label %52

52:                                               ; preds = %.lr.ph.split.split
  switch i8 %49, label %53 [
    i8 59, label %.loopexit
    i8 98, label %.loopexit
  ]

53:                                               ; preds = %52
  %54 = load i16, ptr %47, align 8, !tbaa !20
  %55 = zext i16 %54 to i32
  %56 = icmp eq i32 %0, %55
  br i1 %56, label %.loopexit, label %57

57:                                               ; preds = %53
  %58 = getelementptr inbounds nuw i8, ptr %47, i64 2
  %59 = load i16, ptr %58, align 2, !tbaa !20
  %60 = zext i16 %59 to i32
  %61 = icmp eq i32 %0, %60
  br i1 %61, label %.loopexit, label %62

62:                                               ; preds = %57
  %63 = add i32 %45, -1
  %64 = icmp ugt i32 %63, %0
  br i1 %64, label %.lr.ph.split.split, label %.loopexit, !llvm.loop !178

.loopexit:                                        ; preds = %.lr.ph.split.split, %52, %52, %57, %53, %62, %.lr.ph.split.split.us, %37, %33, %42, %.lr.ph.split.us.split, %22, %22, %23, %.lr.ph.split.us.split.us, %14, %.preheader, %3
  %.021 = phi i32 [ 0, %3 ], [ 1, %.preheader ], [ 0, %.lr.ph.split.us.split.us ], [ 1, %14 ], [ 0, %.lr.ph.split.us.split ], [ 0, %22 ], [ 0, %22 ], [ 1, %23 ], [ 0, %.lr.ph.split.split.us ], [ 0, %37 ], [ 0, %33 ], [ 1, %42 ], [ 0, %.lr.ph.split.split ], [ 0, %52 ], [ 0, %52 ], [ 0, %57 ], [ 0, %53 ], [ 1, %62 ]
  ret i32 %.021
}